target datalayout = "e-m:e-p270:32:32-p271:32:32-p272:64:64-i64:64-i128:128-f80:128-n8:16:32:64-S128"
target triple = "x86_64-pc-linux-gnu"

%"struct.cv::SimpleBlobDetector::Params" = type <{ float, float, float, [4 x i8], i64, float, i8, i8, i8, i8, float, float, i8, [3 x i8], float, float, i8, [3 x i8], float, float, i8, [3 x i8], float, float, i8, [3 x i8] }>
%"class.cv::FileNode" = type { ptr, i64, i64 }

@.str.2 = private unnamed_addr constant [14 x i8] c"thresholdStep\00", align 1
@.str.3 = private unnamed_addr constant [13 x i8] c"minThreshold\00", align 1
@.str.4 = private unnamed_addr constant [13 x i8] c"maxThreshold\00", align 1
@.str.5 = private unnamed_addr constant [17 x i8] c"minRepeatability\00", align 1
@.str.6 = private unnamed_addr constant [20 x i8] c"minDistBetweenBlobs\00", align 1
@.str.7 = private unnamed_addr constant [14 x i8] c"filterByColor\00", align 1
@.str.8 = private unnamed_addr constant [10 x i8] c"blobColor\00", align 1
@.str.9 = private unnamed_addr constant [13 x i8] c"filterByArea\00", align 1
@.str.10 = private unnamed_addr constant [8 x i8] c"minArea\00", align 1
@.str.11 = private unnamed_addr constant [8 x i8] c"maxArea\00", align 1
@.str.12 = private unnamed_addr constant [20 x i8] c"filterByCircularity\00", align 1
@.str.13 = private unnamed_addr constant [15 x i8] c"minCircularity\00", align 1
@.str.14 = private unnamed_addr constant [15 x i8] c"maxCircularity\00", align 1
@.str.15 = private unnamed_addr constant [16 x i8] c"filterByInertia\00", align 1
@.str.16 = private unnamed_addr constant [16 x i8] c"minInertiaRatio\00", align 1
@.str.17 = private unnamed_addr constant [16 x i8] c"maxInertiaRatio\00", align 1
@.str.18 = private unnamed_addr constant [18 x i8] c"filterByConvexity\00", align 1
@.str.19 = private unnamed_addr constant [13 x i8] c"minConvexity\00", align 1
@.str.20 = private unnamed_addr constant [13 x i8] c"maxConvexity\00", align 1
@.str.21 = private unnamed_addr constant [16 x i8] c"collectContours\00", align 1

; Function Attrs: mustprogress uwtable
define void @_ZN2cv18SimpleBlobDetector6Params4readERKNS_8FileNodeE(ptr noundef nonnull align 8 dereferenceable(77) %0, ptr noundef nonnull align 8 dereferenceable(24) %1) #4 align 2 {
  %3 = alloca ptr, align 8
  %4 = alloca ptr, align 8
  %5 = alloca %"class.cv::FileNode", align 8
  %6 = alloca %"class.cv::FileNode", align 8
  %7 = alloca %"class.cv::FileNode", align 8
  %8 = alloca %"class.cv::FileNode", align 8
  %9 = alloca %"class.cv::FileNode", align 8
  %10 = alloca %"class.cv::FileNode", align 8
  %11 = alloca %"class.cv::FileNode", align 8
  %12 = alloca %"class.cv::FileNode", align 8
  %13 = alloca %"class.cv::FileNode", align 8
  %14 = alloca %"class.cv::FileNode", align 8
  %15 = alloca %"class.cv::FileNode", align 8
  %16 = alloca %"class.cv::FileNode", align 8
  %17 = alloca %"class.cv::FileNode", align 8
  %18 = alloca %"class.cv::FileNode", align 8
  %19 = alloca %"class.cv::FileNode", align 8
  %20 = alloca %"class.cv::FileNode", align 8
  %21 = alloca %"class.cv::FileNode", align 8
  %22 = alloca %"class.cv::FileNode", align 8
  %23 = alloca %"class.cv::FileNode", align 8
  %24 = alloca %"class.cv::FileNode", align 8
  store ptr %0, ptr %3, align 8
  store ptr %1, ptr %4, align 8
  %25 = load ptr, ptr %3, align 8
  %26 = load ptr, ptr %4, align 8
  call void @_ZNK2cv8FileNodeixEPKc(ptr dead_on_unwind writable sret(%"class.cv::FileNode") align 8 %5, ptr noundef nonnull align 8 dereferenceable(24) %26, ptr noundef @.str.2)
  %27 = call noundef float @_ZNK2cv8FileNodecvfEv(ptr noundef nonnull align 8 dereferenceable(24) %5)
  %28 = getelementptr inbounds %"struct.cv::SimpleBlobDetector::Params", ptr %25, i32 0, i32 0
  store float %27, ptr %28, align 8
  %29 = load ptr, ptr %4, align 8
  call void @_ZNK2cv8FileNodeixEPKc(ptr dead_on_unwind writable sret(%"class.cv::FileNode") align 8 %6, ptr noundef nonnull align 8 dereferenceable(24) %29, ptr noundef @.str.3)
  %30 = call noundef float @_ZNK2cv8FileNodecvfEv(ptr noundef nonnull align 8 dereferenceable(24) %6)
  %31 = getelementptr inbounds %"struct.cv::SimpleBlobDetector::Params", ptr %25, i32 0, i32 1
  store float %30, ptr %31, align 4
  %32 = load ptr, ptr %4, align 8
  call void @_ZNK2cv8FileNodeixEPKc(ptr dead_on_unwind writable sret(%"class.cv::FileNode") align 8 %7, ptr noundef nonnull align 8 dereferenceable(24) %32, ptr noundef @.str.4)
  %33 = call noundef float @_ZNK2cv8FileNodecvfEv(ptr noundef nonnull align 8 dereferenceable(24) %7)
  %34 = getelementptr inbounds %"struct.cv::SimpleBlobDetector::Params", ptr %25, i32 0, i32 2
  store float %33, ptr %34, align 8
  %35 = load ptr, ptr %4, align 8
  call void @_ZNK2cv8FileNodeixEPKc(ptr dead_on_unwind writable sret(%"class.cv::FileNode") align 8 %8, ptr noundef nonnull align 8 dereferenceable(24) %35, ptr noundef @.str.5)
  %36 = call noundef i32 @_ZNK2cv8FileNodecviEv(ptr noundef nonnull align 8 dereferenceable(24) %8)
  %37 = sext i32 %36 to i64
  %38 = getelementptr inbounds %"struct.cv::SimpleBlobDetector::Params", ptr %25, i32 0, i32 4
  store i64 %37, ptr %38, align 8
  %39 = load ptr, ptr %4, align 8
  call void @_ZNK2cv8FileNodeixEPKc(ptr dead_on_unwind writable sret(%"class.cv::FileNode") align 8 %9, ptr noundef nonnull align 8 dereferenceable(24) %39, ptr noundef @.str.6)
  %40 = call noundef float @_ZNK2cv8FileNodecvfEv(ptr noundef nonnull align 8 dereferenceable(24) %9)
  %41 = getelementptr inbounds %"struct.cv::SimpleBlobDetector::Params", ptr %25, i32 0, i32 5
  store float %40, ptr %41, align 8
  %42 = load ptr, ptr %4, align 8
  call void @_ZNK2cv8FileNodeixEPKc(ptr dead_on_unwind writable sret(%"class.cv::FileNode") align 8 %10, ptr noundef nonnull align 8 dereferenceable(24) %42, ptr noundef @.str.7)
  %43 = call noundef i32 @_ZNK2cv8FileNodecviEv(ptr noundef nonnull align 8 dereferenceable(24) %10)
  %44 = icmp ne i32 %43, 0
  %45 = select i1 %44, i1 true, i1 false
  %46 = getelementptr inbounds %"struct.cv::SimpleBlobDetector::Params", ptr %25, i32 0, i32 6
  %47 = zext i1 %45 to i8
  store i8 %47, ptr %46, align 4
  %48 = load ptr, ptr %4, align 8
  call void @_ZNK2cv8FileNodeixEPKc(ptr dead_on_unwind writable sret(%"class.cv::FileNode") align 8 %11, ptr noundef nonnull align 8 dereferenceable(24) %48, ptr noundef @.str.8)
  %49 = call noundef i32 @_ZNK2cv8FileNodecviEv(ptr noundef nonnull align 8 dereferenceable(24) %11)
  %50 = trunc i32 %49 to i8
  %51 = getelementptr inbounds %"struct.cv::SimpleBlobDetector::Params", ptr %25, i32 0, i32 7
  store i8 %50, ptr %51, align 1
  %52 = load ptr, ptr %4, align 8
  call void @_ZNK2cv8FileNodeixEPKc(ptr dead_on_unwind writable sret(%"class.cv::FileNode") align 8 %12, ptr noundef nonnull align 8 dereferenceable(24) %52, ptr noundef @.str.9)
  %53 = call noundef i32 @_ZNK2cv8FileNodecviEv(ptr noundef nonnull align 8 dereferenceable(24) %12)
  %54 = icmp ne i32 %53, 0
  %55 = select i1 %54, i1 true, i1 false
  %56 = getelementptr inbounds %"struct.cv::SimpleBlobDetector::Params", ptr %25, i32 0, i32 8
  %57 = zext i1 %55 to i8
  store i8 %57, ptr %56, align 2
  %58 = load ptr, ptr %4, align 8
  call void @_ZNK2cv8FileNodeixEPKc(ptr dead_on_unwind writable sret(%"class.cv::FileNode") align 8 %13, ptr noundef nonnull align 8 dereferenceable(24) %58, ptr noundef @.str.10)
  %59 = call noundef float @_ZNK2cv8FileNodecvfEv(ptr noundef nonnull align 8 dereferenceable(24) %13)
  %60 = getelementptr inbounds %"struct.cv::SimpleBlobDetector::Params", ptr %25, i32 0, i32 10
  store float %59, ptr %60, align 8
  %61 = load ptr, ptr %4, align 8
  call void @_ZNK2cv8FileNodeixEPKc(ptr dead_on_unwind writable sret(%"class.cv::FileNode") align 8 %14, ptr noundef nonnull align 8 dereferenceable(24) %61, ptr noundef @.str.11)
  %62 = call noundef float @_ZNK2cv8FileNodecvfEv(ptr noundef nonnull align 8 dereferenceable(24) %14)
  %63 = getelementptr inbounds %"struct.cv::SimpleBlobDetector::Params", ptr %25, i32 0, i32 11
  store float %62, ptr %63, align 4
  %64 = load ptr, ptr %4, align 8
  call void @_ZNK2cv8FileNodeixEPKc(ptr dead_on_unwind writable sret(%"class.cv::FileNode") align 8 %15, ptr noundef nonnull align 8 dereferenceable(24) %64, ptr noundef @.str.12)
  %65 = call noundef i32 @_ZNK2cv8FileNodecviEv(ptr noundef nonnull align 8 dereferenceable(24) %15)
  %66 = icmp ne i32 %65, 0
  %67 = select i1 %66, i1 true, i1 false
  %68 = getelementptr inbounds %"struct.cv::SimpleBlobDetector::Params", ptr %25, i32 0, i32 12
  %69 = zext i1 %67 to i8
  store i8 %69, ptr %68, align 8
  %70 = load ptr, ptr %4, align 8
  call void @_ZNK2cv8FileNodeixEPKc(ptr dead_on_unwind writable sret(%"class.cv::FileNode") align 8 %16, ptr noundef nonnull align 8 dereferenceable(24) %70, ptr noundef @.str.13)
  %71 = call noundef float @_ZNK2cv8FileNodecvfEv(ptr noundef nonnull align 8 dereferenceable(24) %16)
  %72 = getelementptr inbounds %"struct.cv::SimpleBlobDetector::Params", ptr %25, i32 0, i32 14
  store float %71, ptr %72, align 4
  %73 = load ptr, ptr %4, align 8
  call void @_ZNK2cv8FileNodeixEPKc(ptr dead_on_unwind writable sret(%"class.cv::FileNode") align 8 %17, ptr noundef nonnull align 8 dereferenceable(24) %73, ptr noundef @.str.14)
  %74 = call noundef float @_ZNK2cv8FileNodecvfEv(ptr noundef nonnull align 8 dereferenceable(24) %17)
  %75 = getelementptr inbounds %"struct.cv::SimpleBlobDetector::Params", ptr %25, i32 0, i32 15
  store float %74, ptr %75, align 8
  %76 = load ptr, ptr %4, align 8
  call void @_ZNK2cv8FileNodeixEPKc(ptr dead_on_unwind writable sret(%"class.cv::FileNode") align 8 %18, ptr noundef nonnull align 8 dereferenceable(24) %76, ptr noundef @.str.15)
  %77 = call noundef i32 @_ZNK2cv8FileNodecviEv(ptr noundef nonnull align 8 dereferenceable(24) %18)
  %78 = icmp ne i32 %77, 0
  %79 = select i1 %78, i1 true, i1 false
  %80 = getelementptr inbounds %"struct.cv::SimpleBlobDetector::Params", ptr %25, i32 0, i32 16
  %81 = zext i1 %79 to i8
  store i8 %81, ptr %80, align 4
  %82 = load ptr, ptr %4, align 8
  call void @_ZNK2cv8FileNodeixEPKc(ptr dead_on_unwind writable sret(%"class.cv::FileNode") align 8 %19, ptr noundef nonnull align 8 dereferenceable(24) %82, ptr noundef @.str.16)
  %83 = call noundef float @_ZNK2cv8FileNodecvfEv(ptr noundef nonnull align 8 dereferenceable(24) %19)
  %84 = getelementptr inbounds %"struct.cv::SimpleBlobDetector::Params", ptr %25, i32 0, i32 18
  store float %83, ptr %84, align 8
  %85 = load ptr, ptr %4, align 8
  call void @_ZNK2cv8FileNodeixEPKc(ptr dead_on_unwind writable sret(%"class.cv::FileNode") align 8 %20, ptr noundef nonnull align 8 dereferenceable(24) %85, ptr noundef @.str.17)
  %86 = call noundef float @_ZNK2cv8FileNodecvfEv(ptr noundef nonnull align 8 dereferenceable(24) %20)
  %87 = getelementptr inbounds %"struct.cv::SimpleBlobDetector::Params", ptr %25, i32 0, i32 19
  store float %86, ptr %87, align 4
  %88 = load ptr, ptr %4, align 8
  call void @_ZNK2cv8FileNodeixEPKc(ptr dead_on_unwind writable sret(%"class.cv::FileNode") align 8 %21, ptr noundef nonnull align 8 dereferenceable(24) %88, ptr noundef @.str.18)
  %89 = call noundef i32 @_ZNK2cv8FileNodecviEv(ptr noundef nonnull align 8 dereferenceable(24) %21)
  %90 = icmp ne i32 %89, 0
  %91 = select i1 %90, i1 true, i1 false
  %92 = getelementptr inbounds %"struct.cv::SimpleBlobDetector::Params", ptr %25, i32 0, i32 20
  %93 = zext i1 %91 to i8
  store i8 %93, ptr %92, align 8
  %94 = load ptr, ptr %4, align 8
  call void @_ZNK2cv8FileNodeixEPKc(ptr dead_on_unwind writable sret(%"class.cv::FileNode") align 8 %22, ptr noundef nonnull align 8 dereferenceable(24) %94, ptr noundef @.str.19)
  %95 = call noundef float @_ZNK2cv8FileNodecvfEv(ptr noundef nonnull align 8 dereferenceable(24) %22)
  %96 = getelementptr inbounds %"struct.cv::SimpleBlobDetector::Params", ptr %25, i32 0, i32 22
  store float %95, ptr %96, align 4
  %97 = load ptr, ptr %4, align 8
  call void @_ZNK2cv8FileNodeixEPKc(ptr dead_on_unwind writable sret(%"class.cv::FileNode") align 8 %23, ptr noundef nonnull align 8 dereferenceable(24) %97, ptr noundef @.str.20)
  %98 = call noundef float @_ZNK2cv8FileNodecvfEv(ptr noundef nonnull align 8 dereferenceable(24) %23)
  %99 = getelementptr inbounds %"struct.cv::SimpleBlobDetector::Params", ptr %25, i32 0, i32 23
  store float %98, ptr %99, align 8
  %100 = load ptr, ptr %4, align 8
  call void @_ZNK2cv8FileNodeixEPKc(ptr dead_on_unwind writable sret(%"class.cv::FileNode") align 8 %24, ptr noundef nonnull align 8 dereferenceable(24) %100, ptr noundef @.str.21)
  %101 = call noundef i32 @_ZNK2cv8FileNodecviEv(ptr noundef nonnull align 8 dereferenceable(24) %24)
  %102 = icmp ne i32 %101, 0
  %103 = select i1 %102, i1 true, i1 false
  %104 = getelementptr inbounds %"struct.cv::SimpleBlobDetector::Params", ptr %25, i32 0, i32 24
  %105 = zext i1 %103 to i8
  store i8 %105, ptr %104, align 4
  ret void
}