; Function Attrs: mustprogress uwtable
define void @_ZN2cv18SimpleBlobDetector6Params4readERKNS_8FileNodeE(ptr nocapture noundef nonnull writeonly align 8 dereferenceable(77) %0, ptr noundef nonnull align 8 dereferenceable(24) %1) local_unnamed_addr #6 align 2 {
  %3 = alloca %"class.cv::FileNode", align 8
  %4 = alloca %"class.cv::FileNode", align 8
  %5 = alloca %"class.cv::FileNode", align 8
  %6 = alloca %"class.cv::FileNode", align 8
  %7 = alloca %"class.cv::FileNode", align 8
  %8 = alloca %"class.cv::FileNode", align 8
  %9 = alloca %"class.cv::FileNode", align 8
  %10 = alloca %"class.cv::FileNode", align 8
  %11 = alloca %"class.cv::FileNode", align 8
  %12 = alloca %"class.cv::FileNode", align 8
  %13 = alloca %"class.cv::FileNode", align 8
  %14 = alloca %"class.cv::FileNode", align 8
  %15 = alloca %"class.cv::FileNode", align 8
  %16 = alloca %"class.cv::FileNode", align 8
  %17 = alloca %"class.cv::FileNode", align 8
  %18 = alloca %"class.cv::FileNode", align 8
  %19 = alloca %"class.cv::FileNode", align 8
  %20 = alloca %"class.cv::FileNode", align 8
  %21 = alloca %"class.cv::FileNode", align 8
  %22 = alloca %"class.cv::FileNode", align 8
  call void @_ZNK2cv8FileNodeixEPKc(ptr dead_on_unwind nonnull writable sret(%"class.cv::FileNode") align 8 %3, ptr noundef nonnull align 8 dereferenceable(24) %1, ptr noundef nonnull @.str.2)
  %23 = call noundef float @_ZNK2cv8FileNodecvfEv(ptr noundef nonnull align 8 dereferenceable(24) %3)
  store float %23, ptr %0, align 8
  call void @_ZNK2cv8FileNodeixEPKc(ptr dead_on_unwind nonnull writable sret(%"class.cv::FileNode") align 8 %4, ptr noundef nonnull align 8 dereferenceable(24) %1, ptr noundef nonnull @.str.3)
  %24 = call noundef float @_ZNK2cv8FileNodecvfEv(ptr noundef nonnull align 8 dereferenceable(24) %4)
  %25 = getelementptr inbounds i8, ptr %0, i64 4
  store float %24, ptr %25, align 4
  call void @_ZNK2cv8FileNodeixEPKc(ptr dead_on_unwind nonnull writable sret(%"class.cv::FileNode") align 8 %5, ptr noundef nonnull align 8 dereferenceable(24) %1, ptr noundef nonnull @.str.4)
  %26 = call noundef float @_ZNK2cv8FileNodecvfEv(ptr noundef nonnull align 8 dereferenceable(24) %5)
  %27 = getelementptr inbounds i8, ptr %0, i64 8
  store float %26, ptr %27, align 8
  call void @_ZNK2cv8FileNodeixEPKc(ptr dead_on_unwind nonnull writable sret(%"class.cv::FileNode") align 8 %6, ptr noundef nonnull align 8 dereferenceable(24) %1, ptr noundef nonnull @.str.5)
  %28 = call noundef i32 @_ZNK2cv8FileNodecviEv(ptr noundef nonnull align 8 dereferenceable(24) %6)
  %29 = sext i32 %28 to i64
  %30 = getelementptr inbounds i8, ptr %0, i64 16
  store i64 %29, ptr %30, align 8
  call void @_ZNK2cv8FileNodeixEPKc(ptr dead_on_unwind nonnull writable sret(%"class.cv::FileNode") align 8 %7, ptr noundef nonnull align 8 dereferenceable(24) %1, ptr noundef nonnull @.str.6)
  %31 = call noundef float @_ZNK2cv8FileNodecvfEv(ptr noundef nonnull align 8 dereferenceable(24) %7)
  %32 = getelementptr inbounds i8, ptr %0, i64 24
  store float %31, ptr %32, align 8
  call void @_ZNK2cv8FileNodeixEPKc(ptr dead_on_unwind nonnull writable sret(%"class.cv::FileNode") align 8 %8, ptr noundef nonnull align 8 dereferenceable(24) %1, ptr noundef nonnull @.str.7)
  %33 = call noundef i32 @_ZNK2cv8FileNodecviEv(ptr noundef nonnull align 8 dereferenceable(24) %8)
  %34 = icmp ne i32 %33, 0
  %35 = getelementptr inbounds i8, ptr %0, i64 28
  %36 = zext i1 %34 to i8
  store i8 %36, ptr %35, align 4
  call void @_ZNK2cv8FileNodeixEPKc(ptr dead_on_unwind nonnull writable sret(%"class.cv::FileNode") align 8 %9, ptr noundef nonnull align 8 dereferenceable(24) %1, ptr noundef nonnull @.str.8)
  %37 = call noundef i32 @_ZNK2cv8FileNodecviEv(ptr noundef nonnull align 8 dereferenceable(24) %9)
  %38 = trunc i32 %37 to i8
  %39 = getelementptr inbounds i8, ptr %0, i64 29
  store i8 %38, ptr %39, align 1
  call void @_ZNK2cv8FileNodeixEPKc(ptr dead_on_unwind nonnull writable sret(%"class.cv::FileNode") align 8 %10, ptr noundef nonnull align 8 dereferenceable(24) %1, ptr noundef nonnull @.str.9)
  %40 = call noundef i32 @_ZNK2cv8FileNodecviEv(ptr noundef nonnull align 8 dereferenceable(24) %10)
  %41 = icmp ne i32 %40, 0
  %42 = getelementptr inbounds i8, ptr %0, i64 30
  %43 = zext i1 %41 to i8
  store i8 %43, ptr %42, align 2
  call void @_ZNK2cv8FileNodeixEPKc(ptr dead_on_unwind nonnull writable sret(%"class.cv::FileNode") align 8 %11, ptr noundef nonnull align 8 dereferenceable(24) %1, ptr noundef nonnull @.str.10)
  %44 = call noundef float @_ZNK2cv8FileNodecvfEv(ptr noundef nonnull align 8 dereferenceable(24) %11)
  %45 = getelementptr inbounds i8, ptr %0, i64 32
  store float %44, ptr %45, align 8
  call void @_ZNK2cv8FileNodeixEPKc(ptr dead_on_unwind nonnull writable sret(%"class.cv::FileNode") align 8 %12, ptr noundef nonnull align 8 dereferenceable(24) %1, ptr noundef nonnull @.str.11)
  %46 = call noundef float @_ZNK2cv8FileNodecvfEv(ptr noundef nonnull align 8 dereferenceable(24) %12)
  %47 = getelementptr inbounds i8, ptr %0, i64 36
  store float %46, ptr %47, align 4
  call void @_ZNK2cv8FileNodeixEPKc(ptr dead_on_unwind nonnull writable sret(%"class.cv::FileNode") align 8 %13, ptr noundef nonnull align 8 dereferenceable(24) %1, ptr noundef nonnull @.str.12)
  %48 = call noundef i32 @_ZNK2cv8FileNodecviEv(ptr noundef nonnull align 8 dereferenceable(24) %13)
  %49 = icmp ne i32 %48, 0
  %50 = getelementptr inbounds i8, ptr %0, i64 40
  %51 = zext i1 %49 to i8
  store i8 %51, ptr %50, align 8
  call void @_ZNK2cv8FileNodeixEPKc(ptr dead_on_unwind nonnull writable sret(%"class.cv::FileNode") align 8 %14, ptr noundef nonnull align 8 dereferenceable(24) %1, ptr noundef nonnull @.str.13)
  %52 = call noundef float @_ZNK2cv8FileNodecvfEv(ptr noundef nonnull align 8 dereferenceable(24) %14)
  %53 = getelementptr inbounds i8, ptr %0, i64 44
  store float %52, ptr %53, align 4
  call void @_ZNK2cv8FileNodeixEPKc(ptr dead_on_unwind nonnull writable sret(%"class.cv::FileNode") align 8 %15, ptr noundef nonnull align 8 dereferenceable(24) %1, ptr noundef nonnull @.str.14)
  %54 = call noundef float @_ZNK2cv8FileNodecvfEv(ptr noundef nonnull align 8 dereferenceable(24) %15)
  %55 = getelementptr inbounds i8, ptr %0, i64 48
  store float %54, ptr %55, align 8
  call void @_ZNK2cv8FileNodeixEPKc(ptr dead_on_unwind nonnull writable sret(%"class.cv::FileNode") align 8 %16, ptr noundef nonnull align 8 dereferenceable(24) %1, ptr noundef nonnull @.str.15)
  %56 = call noundef i32 @_ZNK2cv8FileNodecviEv(ptr noundef nonnull align 8 dereferenceable(24) %16)
  %57 = icmp ne i32 %56, 0
  %58 = getelementptr inbounds i8, ptr %0, i64 52
  %59 = zext i1 %57 to i8
  store i8 %59, ptr %58, align 4
  call void @_ZNK2cv8FileNodeixEPKc(ptr dead_on_unwind nonnull writable sret(%"class.cv::FileNode") align 8 %17, ptr noundef nonnull align 8 dereferenceable(24) %1, ptr noundef nonnull @.str.16)
  %60 = call noundef float @_ZNK2cv8FileNodecvfEv(ptr noundef nonnull align 8 dereferenceable(24) %17)
  %61 = getelementptr inbounds i8, ptr %0, i64 56
  store float %60, ptr %61, align 8
  call void @_ZNK2cv8FileNodeixEPKc(ptr dead_on_unwind nonnull writable sret(%"class.cv::FileNode") align 8 %18, ptr noundef nonnull align 8 dereferenceable(24) %1, ptr noundef nonnull @.str.17)
  %62 = call noundef float @_ZNK2cv8FileNodecvfEv(ptr noundef nonnull align 8 dereferenceable(24) %18)
  %63 = getelementptr inbounds i8, ptr %0, i64 60
  store float %62, ptr %63, align 4
  call void @_ZNK2cv8FileNodeixEPKc(ptr dead_on_unwind nonnull writable sret(%"class.cv::FileNode") align 8 %19, ptr noundef nonnull align 8 dereferenceable(24) %1, ptr noundef nonnull @.str.18)
  %64 = call noundef i32 @_ZNK2cv8FileNodecviEv(ptr noundef nonnull align 8 dereferenceable(24) %19)
  %65 = icmp ne i32 %64, 0
  %66 = getelementptr inbounds i8, ptr %0, i64 64
  %67 = zext i1 %65 to i8
  store i8 %67, ptr %66, align 8
  call void @_ZNK2cv8FileNodeixEPKc(ptr dead_on_unwind nonnull writable sret(%"class.cv::FileNode") align 8 %20, ptr noundef nonnull align 8 dereferenceable(24) %1, ptr noundef nonnull @.str.19)
  %68 = call noundef float @_ZNK2cv8FileNodecvfEv(ptr noundef nonnull align 8 dereferenceable(24) %20)
  %69 = getelementptr inbounds i8, ptr %0, i64 68
  store float %68, ptr %69, align 4
  call void @_ZNK2cv8FileNodeixEPKc(ptr dead_on_unwind nonnull writable sret(%"class.cv::FileNode") align 8 %21, ptr noundef nonnull align 8 dereferenceable(24) %1, ptr noundef nonnull @.str.20)
  %70 = call noundef float @_ZNK2cv8FileNodecvfEv(ptr noundef nonnull align 8 dereferenceable(24) %21)
  %71 = getelementptr inbounds i8, ptr %0, i64 72
  store float %70, ptr %71, align 8
  call void @_ZNK2cv8FileNodeixEPKc(ptr dead_on_unwind nonnull writable sret(%"class.cv::FileNode") align 8 %22, ptr noundef nonnull align 8 dereferenceable(24) %1, ptr noundef nonnull @.str.21)
  %72 = call noundef i32 @_ZNK2cv8FileNodecviEv(ptr noundef nonnull align 8 dereferenceable(24) %22)
  %73 = icmp ne i32 %72, 0
  %74 = getelementptr inbounds i8, ptr %0, i64 76
  %75 = zext i1 %73 to i8
  store i8 %75, ptr %74, align 4
  ret void
}